target datalayout = "e-m:e-p270:32:32-p271:32:32-p272:64:64-i64:64-i128:128-f80:128-n8:16:32:64-S128"
target triple = "x86_64-pc-linux-gnu"

%struct.slurm_step_io_fds = type { %struct.anon, %struct.anon, %struct.anon }
%struct.anon = type { i32, i32, i32 }
%struct.slurm_step_launch_params_t = type { i32, ptr, i32, ptr, ptr, ptr, i32, i16, i16, i16, i16, i8, i8, ptr, ptr, ptr, %struct.slurm_step_io_fds, i8, i8, i32, i32, i32, i32, i32, i32, ptr, ptr, ptr, i32, i32, ptr, i8, i32, ptr, ptr, i16, ptr, i32, i32, i32, i16, ptr, i16, i16, i16, i16, i16, ptr, i32, ptr, i16, i32, i16, i8, ptr, i8, ptr, i8, ptr, i32, ptr, ptr, i16 }

@slurm_step_launch_params_t_init.fds = internal global %struct.slurm_step_io_fds { %struct.anon { i32 0, i32 -1, i32 -1 }, %struct.anon { i32 1, i32 -1, i32 -1 }, %struct.anon { i32 2, i32 -1, i32 -1 } }, align 4

; Function Attrs: nounwind uwtable
define dso_local void @slurm_step_launch_params_t_init(ptr noundef %0) #0 {
  %2 = alloca ptr, align 8
  store ptr %0, ptr %2, align 8
  %3 = load ptr, ptr %2, align 8
  call void @llvm.memset.p0.i64(ptr align 8 %3, i8 0, i64 384, i1 false)
  %4 = load ptr, ptr %2, align 8
  %5 = getelementptr inbounds nuw %struct.slurm_step_launch_params_t, ptr %4, i32 0, i32 11
  store i8 1, ptr %5, align 4
  %6 = load ptr, ptr %2, align 8
  %7 = getelementptr inbounds nuw %struct.slurm_step_launch_params_t, ptr %6, i32 0, i32 16
  call void @llvm.memcpy.p0.p0.i64(ptr align 8 %7, ptr align 4 @slurm_step_launch_params_t_init.fds, i64 36, i1 false)
  %8 = load ptr, ptr %2, align 8
  %9 = getelementptr inbounds nuw %struct.slurm_step_launch_params_t, ptr %8, i32 0, i32 37
  store i32 -2, ptr %9, align 8
  %10 = load ptr, ptr %2, align 8
  %11 = getelementptr inbounds nuw %struct.slurm_step_launch_params_t, ptr %10, i32 0, i32 38
  store i32 -2, ptr %11, align 4
  %12 = load ptr, ptr %2, align 8
  %13 = getelementptr inbounds nuw %struct.slurm_step_launch_params_t, ptr %12, i32 0, i32 39
  store i32 -2, ptr %13, align 8
  %14 = load ptr, ptr %2, align 8
  %15 = getelementptr inbounds nuw %struct.slurm_step_launch_params_t, ptr %14, i32 0, i32 20
  store i32 -2, ptr %15, align 4
  %16 = load ptr, ptr %2, align 8
  %17 = getelementptr inbounds nuw %struct.slurm_step_launch_params_t, ptr %16, i32 0, i32 21
  store i32 -2, ptr %17, align 8
  %18 = load ptr, ptr %2, align 8
  %19 = getelementptr inbounds nuw %struct.slurm_step_launch_params_t, ptr %18, i32 0, i32 22
  store i32 -2, ptr %19, align 4
  %20 = load ptr, ptr %2, align 8
  %21 = getelementptr inbounds nuw %struct.slurm_step_launch_params_t, ptr %20, i32 0, i32 23
  store i32 -2, ptr %21, align 8
  %22 = load ptr, ptr %2, align 8
  %23 = getelementptr inbounds nuw %struct.slurm_step_launch_params_t, ptr %22, i32 0, i32 28
  store i32 -2, ptr %23, align 8
  %24 = load ptr, ptr %2, align 8
  %25 = getelementptr inbounds nuw %struct.slurm_step_launch_params_t, ptr %24, i32 0, i32 24
  store i32 -2, ptr %25, align 4
  %26 = load ptr, ptr %2, align 8
  %27 = getelementptr inbounds nuw %struct.slurm_step_launch_params_t, ptr %26, i32 0, i32 29
  store i32 -2, ptr %27, align 4
  ret void
}