; Function Attrs: mustprogress nofree norecurse nosync nounwind willreturn memory(argmem: readwrite) uwtable
define dso_local void @slurm_step_launch_params_t_init(ptr noundef writeonly captures(none) initializes((0, 384)) %0) local_unnamed_addr #0 {
  tail call void @llvm.memset.p0.i64(ptr noundef nonnull align 8 dereferenceable(384) %0, i8 0, i64 384, i1 false)
  %2 = getelementptr inbounds nuw i8, ptr %0, i64 60
  store i8 1, ptr %2, align 4
  %3 = getelementptr inbounds nuw i8, ptr %0, i64 88
  tail call void @llvm.memcpy.p0.p0.i64(ptr noundef nonnull align 8 dereferenceable(36) %3, ptr noundef nonnull align 4 dereferenceable(36) @slurm_step_launch_params_t_init.fds, i64 36, i1 false)
  %4 = getelementptr inbounds nuw i8, ptr %0, i64 232
  store i32 -2, ptr %4, align 8
  %5 = getelementptr inbounds nuw i8, ptr %0, i64 236
  store i32 -2, ptr %5, align 4
  %6 = getelementptr inbounds nuw i8, ptr %0, i64 240
  store i32 -2, ptr %6, align 8
  %7 = getelementptr inbounds nuw i8, ptr %0, i64 132
  store i32 -2, ptr %7, align 4
  %8 = getelementptr inbounds nuw i8, ptr %0, i64 136
  store i32 -2, ptr %8, align 8
  %9 = getelementptr inbounds nuw i8, ptr %0, i64 140
  store i32 -2, ptr %9, align 4
  %10 = getelementptr inbounds nuw i8, ptr %0, i64 144
  store i32 -2, ptr %10, align 8
  %11 = getelementptr inbounds nuw i8, ptr %0, i64 176
  store i32 -2, ptr %11, align 8
  %12 = getelementptr inbounds nuw i8, ptr %0, i64 148
  store i32 -2, ptr %12, align 4
  %13 = getelementptr inbounds nuw i8, ptr %0, i64 180
  store i32 -2, ptr %13, align 4
  ret void
}